; Function Attrs: mustprogress nounwind uwtable
define dso_local void @_ZN4llvm8codeview15TypeDumpVisitor16visitKnownRecordERNS0_8CVRecordINS0_12TypeLeafKindEEERNS0_14ModifierRecordE(ptr dead_on_unwind noalias writable writeonly sret(%"class.llvm::Error") align 8 captures(none) initializes((0, 8)) %0, ptr noundef nonnull readonly align 8 captures(none) dereferenceable(40) %1, ptr nonnull readnone align 8 captures(none) %2, ptr noundef nonnull readonly align 2 captures(none) dereferenceable(8) %3) unnamed_addr #0 align 2 {
_ZN4llvm12ErrorSuccessD2Ev.exit:
  %4 = alloca %"class.llvm::ArrayRef.3", align 8
  %5 = getelementptr inbounds nuw i8, ptr %3, i64 6
  %6 = load i16, ptr %5, align 2
  %7 = getelementptr inbounds nuw i8, ptr %3, i64 2
  %.sroa.0.0.copyload.i = load i32, ptr %7, align 2
  %8 = getelementptr inbounds nuw i8, ptr %1, i64 8
  %9 = load ptr, ptr %8, align 8
  %10 = getelementptr inbounds nuw i8, ptr %1, i64 24
  %11 = load ptr, ptr %10, align 8
  tail call void @_ZN4llvm8codeview14printTypeIndexERNS_13ScopedPrinterENS_9StringRefENS0_9TypeIndexERNS0_14TypeCollectionE(ptr noundef nonnull align 8 dereferenceable(44) %9, ptr nonnull @.str.59, i64 12, i32 %.sroa.0.0.copyload.i, ptr noundef nonnull align 8 dereferenceable(8) %11) #14
  %12 = load ptr, ptr %8, align 8
  call void @llvm.memset.p0.i64(ptr noundef nonnull align 8 dereferenceable(16) %4, i8 0, i64 16, i1 false)
  tail call void @_ZN4llvm13ScopedPrinter10printFlagsIttEEvNS_9StringRefET_NS_8ArrayRefINS_9EnumEntryIT0_EEEES6_S6_S6_NS4_INS_9FlagEntryEEE(ptr noundef nonnull align 8 dereferenceable(44) %12, ptr nonnull @.str.60, i64 9, i16 noundef zeroext %6, ptr nonnull @_ZL17TypeModifierNames, i64 3, i16 noundef zeroext 0, i16 noundef zeroext 0, i16 noundef zeroext 0, ptr noundef nonnull byval(%"class.llvm::ArrayRef.3") align 8 %4)
  store ptr null, ptr %0, align 8
  ret void
}